target datalayout = "e-m:e-p270:32:32-p271:32:32-p272:64:64-i64:64-i128:128-f80:128-n8:16:32:64-S128"
target triple = "x86_64-pc-linux-gnu"

; Function Attrs: nounwind uwtable
define i32 @wc_SignatureGetSize(i32 noundef %0, ptr noundef %1, i32 noundef %2) #0 {
  %4 = alloca i32, align 4
  %5 = alloca ptr, align 8
  %6 = alloca i32, align 4
  %7 = alloca i32, align 4
  store i32 %0, ptr %4, align 4, !tbaa !3
  store ptr %1, ptr %5, align 8, !tbaa !7
  store i32 %2, ptr %6, align 4, !tbaa !3
  call void @llvm.lifetime.start.p0(i64 4, ptr %7) #6
  store i32 -173, ptr %7, align 4, !tbaa !3
  %8 = load i32, ptr %4, align 4, !tbaa !3
  switch i32 %8, label %34 [
    i32 1, label %9
    i32 3, label %21
    i32 2, label %21
    i32 0, label %33
  ]

9:                                                ; preds = %3
  %10 = load i32, ptr %6, align 4, !tbaa !3
  %11 = zext i32 %10 to i64
  %12 = icmp uge i64 %11, 4208
  br i1 %12, label %13, label %16

13:                                               ; preds = %9
  %14 = load ptr, ptr %5, align 8, !tbaa !7
  %15 = call i32 @wc_ecc_sig_size(ptr noundef %14)
  store i32 %15, ptr %7, align 4, !tbaa !3
  br label %20

16:                                               ; preds = %9
  br label %17

17:                                               ; preds = %16
  br label %18

18:                                               ; preds = %17
  br label %19

19:                                               ; preds = %18
  br label %20

20:                                               ; preds = %19, %13
  br label %35

21:                                               ; preds = %3, %3
  %22 = load i32, ptr %6, align 4, !tbaa !3
  %23 = zext i32 %22 to i64
  %24 = icmp uge i64 %23, 8368
  br i1 %24, label %25, label %28

25:                                               ; preds = %21
  %26 = load ptr, ptr %5, align 8, !tbaa !7
  %27 = call i32 @wc_RsaEncryptSize(ptr noundef %26)
  store i32 %27, ptr %7, align 4, !tbaa !3
  br label %32

28:                                               ; preds = %21
  br label %29

29:                                               ; preds = %28
  br label %30

30:                                               ; preds = %29
  br label %31

31:                                               ; preds = %30
  br label %32

32:                                               ; preds = %31, %25
  br label %35

33:                                               ; preds = %3
  br label %34

34:                                               ; preds = %3, %33
  store i32 -173, ptr %7, align 4, !tbaa !3
  br label %35

35:                                               ; preds = %34, %32, %20
  %36 = load i32, ptr %7, align 4, !tbaa !3
  call void @llvm.lifetime.end.p0(i64 4, ptr %7) #6
  ret i32 %36
}