; Function Attrs: nounwind uwtable
define i32 @wc_SignatureGetSize(i32 noundef %0, ptr noundef %1, i32 noundef %2) local_unnamed_addr #0 {
  switch i32 %0, label %12 [
    i32 1, label %4
    i32 3, label %8
    i32 2, label %8
  ]

4:                                                ; preds = %3
  %5 = icmp ugt i32 %2, 4207
  br i1 %5, label %6, label %12

6:                                                ; preds = %4
  %7 = tail call i32 @wc_ecc_sig_size(ptr noundef %1) #7
  br label %12

8:                                                ; preds = %3, %3
  %9 = icmp ugt i32 %2, 8367
  br i1 %9, label %10, label %12

10:                                               ; preds = %8
  %11 = tail call i32 @wc_RsaEncryptSize(ptr noundef %1) #7
  br label %12

12:                                               ; preds = %3, %10, %8, %6, %4
  %.0 = phi i32 [ %11, %10 ], [ -173, %8 ], [ %7, %6 ], [ -173, %4 ], [ -173, %3 ]
  ret i32 %.0
}